target datalayout = "e-m:e-p270:32:32-p271:32:32-p272:64:64-i64:64-i128:128-f80:128-n8:16:32:64-S128"
target triple = "x86_64-unknown-linux-gnu"

%"class.ClipperLib::Int128" = type { i64, i64 }

; Function Attrs: mustprogress nounwind uwtable
define linkonce_odr hidden void @_ZN10ClipperLib6Int128C2ERKxRKy(ptr noundef nonnull align 8 dereferenceable(16) %this, ptr noundef nonnull align 8 dereferenceable(8) %_hi, ptr noundef nonnull align 8 dereferenceable(8) %_lo) unnamed_addr #1 comdat align 2 {
entry:
  %this.addr = alloca ptr, align 8
  %_hi.addr = alloca ptr, align 8
  %_lo.addr = alloca ptr, align 8
  store ptr %this, ptr %this.addr, align 8
  store ptr %_hi, ptr %_hi.addr, align 8
  store ptr %_lo, ptr %_lo.addr, align 8
  %this1 = load ptr, ptr %this.addr, align 8
  %lo = getelementptr inbounds %"class.ClipperLib::Int128", ptr %this1, i32 0, i32 0
  %0 = load ptr, ptr %_lo.addr, align 8
  %1 = load i64, ptr %0, align 8
  store i64 %1, ptr %lo, align 8
  %hi = getelementptr inbounds %"class.ClipperLib::Int128", ptr %this1, i32 0, i32 1
  %2 = load ptr, ptr %_hi.addr, align 8
  %3 = load i64, ptr %2, align 8
  store i64 %3, ptr %hi, align 8
  ret void
}

; Function Attrs: mustprogress uwtable
define linkonce_odr hidden void @_ZNK10ClipperLib6Int128ngEv(ptr noalias sret(%"class.ClipperLib::Int128") align 8 %agg.result, ptr noundef nonnull align 8 dereferenceable(16) %this) #0 comdat align 2 {
entry:
  %result.ptr = alloca ptr, align 8
  %this.addr = alloca ptr, align 8
  %ref.tmp = alloca i64, align 8
  %ref.tmp2 = alloca i64, align 8
  %ref.tmp3 = alloca i64, align 8
  %ref.tmp5 = alloca i64, align 8
  store ptr %agg.result, ptr %result.ptr, align 8
  store ptr %this, ptr %this.addr, align 8
  %this1 = load ptr, ptr %this.addr, align 8
  %lo = getelementptr inbounds %"class.ClipperLib::Int128", ptr %this1, i32 0, i32 0
  %0 = load i64, ptr %lo, align 8
  %cmp = icmp eq i64 %0, 0
  br i1 %cmp, label %if.then, label %if.else

if.then:                                          ; preds = %entry
  %hi = getelementptr inbounds %"class.ClipperLib::Int128", ptr %this1, i32 0, i32 1
  %1 = load i64, ptr %hi, align 8
  %sub = sub nsw i64 0, %1
  store i64 %sub, ptr %ref.tmp, align 8
  store i64 0, ptr %ref.tmp2, align 8
  call void @_ZN10ClipperLib6Int128C2ERKxRKy(ptr noundef nonnull align 8 dereferenceable(16) %agg.result, ptr noundef nonnull align 8 dereferenceable(8) %ref.tmp, ptr noundef nonnull align 8 dereferenceable(8) %ref.tmp2)
  br label %return

if.else:                                          ; preds = %entry
  %hi4 = getelementptr inbounds %"class.ClipperLib::Int128", ptr %this1, i32 0, i32 1
  %2 = load i64, ptr %hi4, align 8
  %not = xor i64 %2, -1
  store i64 %not, ptr %ref.tmp3, align 8
  %lo6 = getelementptr inbounds %"class.ClipperLib::Int128", ptr %this1, i32 0, i32 0
  %3 = load i64, ptr %lo6, align 8
  %not7 = xor i64 %3, -1
  %add = add i64 %not7, 1
  store i64 %add, ptr %ref.tmp5, align 8
  call void @_ZN10ClipperLib6Int128C2ERKxRKy(ptr noundef nonnull align 8 dereferenceable(16) %agg.result, ptr noundef nonnull align 8 dereferenceable(8) %ref.tmp3, ptr noundef nonnull align 8 dereferenceable(8) %ref.tmp5)
  br label %return

return:                                           ; preds = %if.else, %if.then
  ret void
}

; Function Attrs: mustprogress nounwind uwtable
define linkonce_odr hidden void @_ZN10ClipperLib6Int128C2Ex(ptr noundef nonnull align 8 dereferenceable(16) %this, i64 noundef %_lo) unnamed_addr #1 comdat align 2 {
entry:
  %this.addr = alloca ptr, align 8
  %_lo.addr = alloca i64, align 8
  store ptr %this, ptr %this.addr, align 8
  store i64 %_lo, ptr %_lo.addr, align 8
  %this1 = load ptr, ptr %this.addr, align 8
  %0 = load i64, ptr %_lo.addr, align 8
  %lo = getelementptr inbounds %"class.ClipperLib::Int128", ptr %this1, i32 0, i32 0
  store i64 %0, ptr %lo, align 8
  %1 = load i64, ptr %_lo.addr, align 8
  %cmp = icmp slt i64 %1, 0
  br i1 %cmp, label %if.then, label %if.else

if.then:                                          ; preds = %entry
  %hi = getelementptr inbounds %"class.ClipperLib::Int128", ptr %this1, i32 0, i32 1
  store i64 -1, ptr %hi, align 8
  br label %if.end

if.else:                                          ; preds = %entry
  %hi2 = getelementptr inbounds %"class.ClipperLib::Int128", ptr %this1, i32 0, i32 1
  store i64 0, ptr %hi2, align 8
  br label %if.end

if.end:                                           ; preds = %if.else, %if.then
  ret void
}

; Function Attrs: mustprogress uwtable
define hidden void @_ZN10ClipperLib9Int128MulExx(ptr noalias sret(%"class.ClipperLib::Int128") align 8 %agg.result, i64 noundef %lhs, i64 noundef %rhs) #0 {
entry:
  %result.ptr = alloca ptr, align 8
  %lhs.addr = alloca i64, align 8
  %rhs.addr = alloca i64, align 8
  %negate = alloca i8, align 1
  %int1Hi = alloca i64, align 8
  %int1Lo = alloca i64, align 8
  %int2Hi = alloca i64, align 8
  %int2Lo = alloca i64, align 8
  %a = alloca i64, align 8
  %b = alloca i64, align 8
  %c = alloca i64, align 8
  %ref.tmp = alloca %"class.ClipperLib::Int128", align 8
  store ptr %agg.result, ptr %result.ptr, align 8
  store i64 %lhs, ptr %lhs.addr, align 8
  store i64 %rhs, ptr %rhs.addr, align 8
  %0 = load i64, ptr %lhs.addr, align 8
  %cmp = icmp slt i64 %0, 0
  %conv = zext i1 %cmp to i32
  %1 = load i64, ptr %rhs.addr, align 8
  %cmp1 = icmp slt i64 %1, 0
  %conv2 = zext i1 %cmp1 to i32
  %cmp3 = icmp ne i32 %conv, %conv2
  %frombool = zext i1 %cmp3 to i8
  store i8 %frombool, ptr %negate, align 1
  %2 = load i64, ptr %lhs.addr, align 8
  %cmp4 = icmp slt i64 %2, 0
  br i1 %cmp4, label %if.then, label %if.end

if.then:                                          ; preds = %entry
  %3 = load i64, ptr %lhs.addr, align 8
  %sub = sub nsw i64 0, %3
  store i64 %sub, ptr %lhs.addr, align 8
  br label %if.end

if.end:                                           ; preds = %if.then, %entry
  %4 = load i64, ptr %lhs.addr, align 8
  %shr = lshr i64 %4, 32
  store i64 %shr, ptr %int1Hi, align 8
  %5 = load i64, ptr %lhs.addr, align 8
  %and = and i64 %5, 4294967295
  store i64 %and, ptr %int1Lo, align 8
  %6 = load i64, ptr %rhs.addr, align 8
  %cmp5 = icmp slt i64 %6, 0
  br i1 %cmp5, label %if.then6, label %if.end8

if.then6:                                         ; preds = %if.end
  %7 = load i64, ptr %rhs.addr, align 8
  %sub7 = sub nsw i64 0, %7
  store i64 %sub7, ptr %rhs.addr, align 8
  br label %if.end8

if.end8:                                          ; preds = %if.then6, %if.end
  %8 = load i64, ptr %rhs.addr, align 8
  %shr9 = lshr i64 %8, 32
  store i64 %shr9, ptr %int2Hi, align 8
  %9 = load i64, ptr %rhs.addr, align 8
  %and10 = and i64 %9, 4294967295
  store i64 %and10, ptr %int2Lo, align 8
  %10 = load i64, ptr %int1Hi, align 8
  %11 = load i64, ptr %int2Hi, align 8
  %mul = mul i64 %10, %11
  store i64 %mul, ptr %a, align 8
  %12 = load i64, ptr %int1Lo, align 8
  %13 = load i64, ptr %int2Lo, align 8
  %mul11 = mul i64 %12, %13
  store i64 %mul11, ptr %b, align 8
  %14 = load i64, ptr %int1Hi, align 8
  %15 = load i64, ptr %int2Lo, align 8
  %mul12 = mul i64 %14, %15
  %16 = load i64, ptr %int1Lo, align 8
  %17 = load i64, ptr %int2Hi, align 8
  %mul13 = mul i64 %16, %17
  %add = add i64 %mul12, %mul13
  store i64 %add, ptr %c, align 8
  call void @_ZN10ClipperLib6Int128C2Ex(ptr noundef nonnull align 8 dereferenceable(16) %agg.result, i64 noundef 0)
  %18 = load i64, ptr %a, align 8
  %19 = load i64, ptr %c, align 8
  %shr14 = lshr i64 %19, 32
  %add15 = add i64 %18, %shr14
  %hi = getelementptr inbounds %"class.ClipperLib::Int128", ptr %agg.result, i32 0, i32 1
  store i64 %add15, ptr %hi, align 8
  %20 = load i64, ptr %c, align 8
  %shl = shl i64 %20, 32
  %lo = getelementptr inbounds %"class.ClipperLib::Int128", ptr %agg.result, i32 0, i32 0
  store i64 %shl, ptr %lo, align 8
  %21 = load i64, ptr %b, align 8
  %lo16 = getelementptr inbounds %"class.ClipperLib::Int128", ptr %agg.result, i32 0, i32 0
  %22 = load i64, ptr %lo16, align 8
  %add17 = add i64 %22, %21
  store i64 %add17, ptr %lo16, align 8
  %lo18 = getelementptr inbounds %"class.ClipperLib::Int128", ptr %agg.result, i32 0, i32 0
  %23 = load i64, ptr %lo18, align 8
  %24 = load i64, ptr %b, align 8
  %cmp19 = icmp ult i64 %23, %24
  br i1 %cmp19, label %if.then20, label %if.end22

if.then20:                                        ; preds = %if.end8
  %hi21 = getelementptr inbounds %"class.ClipperLib::Int128", ptr %agg.result, i32 0, i32 1
  %25 = load i64, ptr %hi21, align 8
  %inc = add nsw i64 %25, 1
  store i64 %inc, ptr %hi21, align 8
  br label %if.end22

if.end22:                                         ; preds = %if.then20, %if.end8
  %26 = load i8, ptr %negate, align 1
  %tobool = trunc i8 %26 to i1
  br i1 %tobool, label %if.then23, label %if.end24

if.then23:                                        ; preds = %if.end22
  call void @_ZNK10ClipperLib6Int128ngEv(ptr sret(%"class.ClipperLib::Int128") align 8 %ref.tmp, ptr noundef nonnull align 8 dereferenceable(16) %agg.result)
  call void @llvm.memcpy.p0.p0.i64(ptr align 8 %agg.result, ptr align 8 %ref.tmp, i64 16, i1 false)
  br label %if.end24

if.end24:                                         ; preds = %if.then23, %if.end22
  ret void
}