; Function Attrs: mustprogress nofree norecurse nosync nounwind willreturn memory(argmem: write) uwtable
define hidden void @_ZN10ClipperLib9Int128MulExx(ptr noalias nocapture writeonly sret(%"class.ClipperLib::Int128") align 8 %agg.result, i64 noundef %lhs, i64 noundef %rhs) local_unnamed_addr #2 {
entry:
  %cmp3.not.unshifted = xor i64 %rhs, %lhs
  %cmp3.not = icmp sgt i64 %cmp3.not.unshifted, -1
  %spec.select = tail call i64 @llvm.abs.i64(i64 %lhs, i1 true)
  %shr = lshr i64 %spec.select, 32
  %and = and i64 %spec.select, 4294967295
  %rhs.addr.0 = tail call i64 @llvm.abs.i64(i64 %rhs, i1 true)
  %shr9 = lshr i64 %rhs.addr.0, 32
  %and10 = and i64 %rhs.addr.0, 4294967295
  %mul = mul nuw nsw i64 %shr9, %shr
  %mul11 = mul nuw i64 %and10, %and
  %mul12 = mul nuw nsw i64 %and10, %shr
  %mul13 = mul nuw nsw i64 %shr9, %and
  %add = add nuw i64 %mul12, %mul13
  %0 = getelementptr inbounds i8, ptr %agg.result, i64 8
  %shr14 = lshr i64 %add, 32
  %add15 = add nuw nsw i64 %shr14, %mul
  store i64 %add15, ptr %0, align 8
  %shl = shl i64 %add, 32
  %add17 = add i64 %shl, %mul11
  store i64 %add17, ptr %agg.result, align 8
  %cmp19 = icmp ult i64 %add17, %mul11
  br i1 %cmp19, label %if.then20, label %if.end22

if.then20:                                        ; preds = %entry
  %inc = add nuw nsw i64 %add15, 1
  store i64 %inc, ptr %0, align 8
  br label %if.end22

if.end22:                                         ; preds = %if.then20, %entry
  %1 = phi i64 [ %inc, %if.then20 ], [ %add15, %entry ]
  br i1 %cmp3.not, label %if.end24, label %if.then23

if.then23:                                        ; preds = %if.end22
  %cmp.i = icmp eq i64 %add17, 0
  %sub.i = sub nsw i64 0, %1
  %not.i = xor i64 %1, -1
  %add.i = sub i64 0, %add17
  %not.sink.i = select i1 %cmp.i, i64 %sub.i, i64 %not.i
  store i64 %add.i, ptr %agg.result, align 8
  store i64 %not.sink.i, ptr %0, align 8
  br label %if.end24

if.end24:                                         ; preds = %if.then23, %if.end22
  ret void
}